target datalayout = "e-m:e-p270:32:32-p271:32:32-p272:64:64-i64:64-i128:128-f80:128-n8:16:32:64-S128"
target triple = "x86_64-pc-linux-gnu"

%"struct.duckdb_brotli::BrotliOnePassArena" = type { [256 x i8], [256 x i16], [128 x i8], [128 x i16], [128 x i32], [512 x i8], i64, [513 x %"struct.duckdb_brotli::HuffmanTree"], [256 x i32], [704 x i8], [64 x i16] }
%"struct.duckdb_brotli::HuffmanTree" = type { i32, i16, i16 }

; Function Attrs: alwaysinline mustprogress nounwind uwtable
define internal noundef i32 @_ZL19brotli_min_uint32_tjj(i32 noundef %0, i32 noundef %1) #2 {
  %3 = alloca i32, align 4
  %4 = alloca i32, align 4
  store i32 %0, ptr %3, align 4, !tbaa !12
  store i32 %1, ptr %4, align 4, !tbaa !12
  %5 = load i32, ptr %3, align 4, !tbaa !12
  %6 = load i32, ptr %4, align 4, !tbaa !12
  %7 = icmp ult i32 %5, %6
  br i1 %7, label %8, label %10

8:                                                ; preds = %2
  %9 = load i32, ptr %3, align 4, !tbaa !12
  br label %12

10:                                               ; preds = %2
  %11 = load i32, ptr %4, align 4, !tbaa !12
  br label %12

12:                                               ; preds = %10, %8
  %13 = phi i32 [ %9, %8 ], [ %11, %10 ]
  ret i32 %13
}

; Function Attrs: mustprogress uwtable
define internal noundef i64 @_ZL30BuildAndStoreLiteralPrefixCodePN13duckdb_brotli18BrotliOnePassArenaEPKhmPhPtPmS4_(ptr noundef %0, ptr noundef %1, i64 noundef %2, ptr noundef %3, ptr noundef %4, ptr noundef %5, ptr noundef %6) #0 {
  %8 = alloca ptr, align 8
  %9 = alloca ptr, align 8
  %10 = alloca i64, align 8
  %11 = alloca ptr, align 8
  %12 = alloca ptr, align 8
  %13 = alloca ptr, align 8
  %14 = alloca ptr, align 8
  %15 = alloca ptr, align 8
  %16 = alloca i64, align 8
  %17 = alloca i64, align 8
  %18 = alloca i32, align 4
  %19 = alloca i32, align 4
  %20 = alloca i64, align 8
  store ptr %0, ptr %8, align 8, !tbaa !3
  store ptr %1, ptr %9, align 8, !tbaa !8
  store i64 %2, ptr %10, align 8, !tbaa !10
  store ptr %3, ptr %11, align 8, !tbaa !8
  store ptr %4, ptr %12, align 8, !tbaa !20
  store ptr %5, ptr %13, align 8, !tbaa !16
  store ptr %6, ptr %14, align 8, !tbaa !8
  call void @llvm.lifetime.start.p0(i64 8, ptr %15) #12
  %21 = load ptr, ptr %8, align 8, !tbaa !3
  %22 = getelementptr inbounds nuw %"struct.duckdb_brotli::BrotliOnePassArena", ptr %21, i32 0, i32 8
  %23 = getelementptr inbounds [256 x i32], ptr %22, i64 0, i64 0
  store ptr %23, ptr %15, align 8, !tbaa !14
  call void @llvm.lifetime.start.p0(i64 8, ptr %16) #12
  call void @llvm.lifetime.start.p0(i64 8, ptr %17) #12
  %24 = load ptr, ptr %15, align 8, !tbaa !14
  call void @llvm.memset.p0.i64(ptr align 4 %24, i8 0, i64 1024, i1 false)
  %25 = load i64, ptr %10, align 8, !tbaa !10
  %26 = icmp ult i64 %25, 32768
  br i1 %26, label %27, label %71

27:                                               ; preds = %7
  store i64 0, ptr %17, align 8, !tbaa !10
  br label %28

28:                                               ; preds = %42, %27
  %29 = load i64, ptr %17, align 8, !tbaa !10
  %30 = load i64, ptr %10, align 8, !tbaa !10
  %31 = icmp ult i64 %29, %30
  br i1 %31, label %32, label %45

32:                                               ; preds = %28
  %33 = load ptr, ptr %15, align 8, !tbaa !14
  %34 = load ptr, ptr %9, align 8, !tbaa !8
  %35 = load i64, ptr %17, align 8, !tbaa !10
  %36 = getelementptr inbounds nuw i8, ptr %34, i64 %35
  %37 = load i8, ptr %36, align 1, !tbaa !18
  %38 = zext i8 %37 to i64
  %39 = getelementptr inbounds nuw i32, ptr %33, i64 %38
  %40 = load i32, ptr %39, align 4, !tbaa !12
  %41 = add i32 %40, 1
  store i32 %41, ptr %39, align 4, !tbaa !12
  br label %42

42:                                               ; preds = %32
  %43 = load i64, ptr %17, align 8, !tbaa !10
  %44 = add i64 %43, 1
  store i64 %44, ptr %17, align 8, !tbaa !10
  br label %28, !llvm.loop !31

45:                                               ; preds = %28
  %46 = load i64, ptr %10, align 8, !tbaa !10
  store i64 %46, ptr %16, align 8, !tbaa !10
  store i64 0, ptr %17, align 8, !tbaa !10
  br label %47

47:                                               ; preds = %67, %45
  %48 = load i64, ptr %17, align 8, !tbaa !10
  %49 = icmp ult i64 %48, 256
  br i1 %49, label %50, label %70

50:                                               ; preds = %47
  call void @llvm.lifetime.start.p0(i64 4, ptr %18) #12
  %51 = load ptr, ptr %15, align 8, !tbaa !14
  %52 = load i64, ptr %17, align 8, !tbaa !10
  %53 = getelementptr inbounds nuw i32, ptr %51, i64 %52
  %54 = load i32, ptr %53, align 4, !tbaa !12
  %55 = call noundef i32 @_ZL19brotli_min_uint32_tjj(i32 noundef %54, i32 noundef 11)
  %56 = mul i32 2, %55
  store i32 %56, ptr %18, align 4, !tbaa !12
  %57 = load i32, ptr %18, align 4, !tbaa !12
  %58 = load ptr, ptr %15, align 8, !tbaa !14
  %59 = load i64, ptr %17, align 8, !tbaa !10
  %60 = getelementptr inbounds nuw i32, ptr %58, i64 %59
  %61 = load i32, ptr %60, align 4, !tbaa !12
  %62 = add i32 %61, %57
  store i32 %62, ptr %60, align 4, !tbaa !12
  %63 = load i32, ptr %18, align 4, !tbaa !12
  %64 = zext i32 %63 to i64
  %65 = load i64, ptr %16, align 8, !tbaa !10
  %66 = add i64 %65, %64
  store i64 %66, ptr %16, align 8, !tbaa !10
  call void @llvm.lifetime.end.p0(i64 4, ptr %18) #12
  br label %67

67:                                               ; preds = %50
  %68 = load i64, ptr %17, align 8, !tbaa !10
  %69 = add i64 %68, 1
  store i64 %69, ptr %17, align 8, !tbaa !10
  br label %47, !llvm.loop !32

70:                                               ; preds = %47
  br label %119

71:                                               ; preds = %7
  store i64 0, ptr %17, align 8, !tbaa !10
  br label %72

72:                                               ; preds = %86, %71
  %73 = load i64, ptr %17, align 8, !tbaa !10
  %74 = load i64, ptr %10, align 8, !tbaa !10
  %75 = icmp ult i64 %73, %74
  br i1 %75, label %76, label %89

76:                                               ; preds = %72
  %77 = load ptr, ptr %15, align 8, !tbaa !14
  %78 = load ptr, ptr %9, align 8, !tbaa !8
  %79 = load i64, ptr %17, align 8, !tbaa !10
  %80 = getelementptr inbounds nuw i8, ptr %78, i64 %79
  %81 = load i8, ptr %80, align 1, !tbaa !18
  %82 = zext i8 %81 to i64
  %83 = getelementptr inbounds nuw i32, ptr %77, i64 %82
  %84 = load i32, ptr %83, align 4, !tbaa !12
  %85 = add i32 %84, 1
  store i32 %85, ptr %83, align 4, !tbaa !12
  br label %86

86:                                               ; preds = %76
  %87 = load i64, ptr %17, align 8, !tbaa !10
  %88 = add i64 %87, 29
  store i64 %88, ptr %17, align 8, !tbaa !10
  br label %72, !llvm.loop !33

89:                                               ; preds = %72
  %90 = load i64, ptr %10, align 8, !tbaa !10
  %91 = add i64 %90, 29
  %92 = sub i64 %91, 1
  %93 = udiv i64 %92, 29
  store i64 %93, ptr %16, align 8, !tbaa !10
  store i64 0, ptr %17, align 8, !tbaa !10
  br label %94

94:                                               ; preds = %115, %89
  %95 = load i64, ptr %17, align 8, !tbaa !10
  %96 = icmp ult i64 %95, 256
  br i1 %96, label %97, label %118

97:                                               ; preds = %94
  call void @llvm.lifetime.start.p0(i64 4, ptr %19) #12
  %98 = load ptr, ptr %15, align 8, !tbaa !14
  %99 = load i64, ptr %17, align 8, !tbaa !10
  %100 = getelementptr inbounds nuw i32, ptr %98, i64 %99
  %101 = load i32, ptr %100, align 4, !tbaa !12
  %102 = call noundef i32 @_ZL19brotli_min_uint32_tjj(i32 noundef %101, i32 noundef 11)
  %103 = mul i32 2, %102
  %104 = add i32 1, %103
  store i32 %104, ptr %19, align 4, !tbaa !12
  %105 = load i32, ptr %19, align 4, !tbaa !12
  %106 = load ptr, ptr %15, align 8, !tbaa !14
  %107 = load i64, ptr %17, align 8, !tbaa !10
  %108 = getelementptr inbounds nuw i32, ptr %106, i64 %107
  %109 = load i32, ptr %108, align 4, !tbaa !12
  %110 = add i32 %109, %105
  store i32 %110, ptr %108, align 4, !tbaa !12
  %111 = load i32, ptr %19, align 4, !tbaa !12
  %112 = zext i32 %111 to i64
  %113 = load i64, ptr %16, align 8, !tbaa !10
  %114 = add i64 %113, %112
  store i64 %114, ptr %16, align 8, !tbaa !10
  call void @llvm.lifetime.end.p0(i64 4, ptr %19) #12
  br label %115

115:                                              ; preds = %97
  %116 = load i64, ptr %17, align 8, !tbaa !10
  %117 = add i64 %116, 1
  store i64 %117, ptr %17, align 8, !tbaa !10
  br label %94, !llvm.loop !34

118:                                              ; preds = %94
  br label %119

119:                                              ; preds = %118, %70
  %120 = load ptr, ptr %8, align 8, !tbaa !3
  %121 = getelementptr inbounds nuw %"struct.duckdb_brotli::BrotliOnePassArena", ptr %120, i32 0, i32 7
  %122 = getelementptr inbounds [513 x %"struct.duckdb_brotli::HuffmanTree"], ptr %121, i64 0, i64 0
  %123 = load ptr, ptr %15, align 8, !tbaa !14
  %124 = load i64, ptr %16, align 8, !tbaa !10
  %125 = load ptr, ptr %11, align 8, !tbaa !8
  %126 = load ptr, ptr %12, align 8, !tbaa !20
  %127 = load ptr, ptr %13, align 8, !tbaa !16
  %128 = load ptr, ptr %14, align 8, !tbaa !8
  call void @_ZN13duckdb_brotli34BrotliBuildAndStoreHuffmanTreeFastEPNS_11HuffmanTreeEPKjmmPhPtPmS4_(ptr noundef %122, ptr noundef %123, i64 noundef %124, i64 noundef 8, ptr noundef %125, ptr noundef %126, ptr noundef %127, ptr noundef %128)
  call void @llvm.lifetime.start.p0(i64 8, ptr %20) #12
  store i64 0, ptr %20, align 8, !tbaa !10
  store i64 0, ptr %17, align 8, !tbaa !10
  br label %129

129:                                              ; preds = %153, %119
  %130 = load i64, ptr %17, align 8, !tbaa !10
  %131 = icmp ult i64 %130, 256
  br i1 %131, label %132, label %156

132:                                              ; preds = %129
  %133 = load ptr, ptr %15, align 8, !tbaa !14
  %134 = load i64, ptr %17, align 8, !tbaa !10
  %135 = getelementptr inbounds nuw i32, ptr %133, i64 %134
  %136 = load i32, ptr %135, align 4, !tbaa !12
  %137 = icmp ne i32 %136, 0
  br i1 %137, label %138, label %152

138:                                              ; preds = %132
  %139 = load ptr, ptr %15, align 8, !tbaa !14
  %140 = load i64, ptr %17, align 8, !tbaa !10
  %141 = getelementptr inbounds nuw i32, ptr %139, i64 %140
  %142 = load i32, ptr %141, align 4, !tbaa !12
  %143 = load ptr, ptr %11, align 8, !tbaa !8
  %144 = load i64, ptr %17, align 8, !tbaa !10
  %145 = getelementptr inbounds nuw i8, ptr %143, i64 %144
  %146 = load i8, ptr %145, align 1, !tbaa !18
  %147 = zext i8 %146 to i32
  %148 = mul i32 %142, %147
  %149 = zext i32 %148 to i64
  %150 = load i64, ptr %20, align 8, !tbaa !10
  %151 = add i64 %150, %149
  store i64 %151, ptr %20, align 8, !tbaa !10
  br label %152

152:                                              ; preds = %138, %132
  br label %153

153:                                              ; preds = %152
  %154 = load i64, ptr %17, align 8, !tbaa !10
  %155 = add i64 %154, 1
  store i64 %155, ptr %17, align 8, !tbaa !10
  br label %129, !llvm.loop !35

156:                                              ; preds = %129
  %157 = load i64, ptr %20, align 8, !tbaa !10
  %158 = mul i64 %157, 125
  %159 = load i64, ptr %16, align 8, !tbaa !10
  %160 = udiv i64 %158, %159
  call void @llvm.lifetime.end.p0(i64 8, ptr %20) #12
  call void @llvm.lifetime.end.p0(i64 8, ptr %17) #12
  call void @llvm.lifetime.end.p0(i64 8, ptr %16) #12
  call void @llvm.lifetime.end.p0(i64 8, ptr %15) #12
  ret i64 %160
}